; Function Attrs: mustprogress uwtable
define void @_ZN3re29PrefilterC2ENS0_2OpE(ptr noundef nonnull align 8 dereferenceable(52) %this, i32 noundef %op) unnamed_addr #0 align 2 personality ptr @__gxx_personality_v0 {
entry:
  %atom_ = getelementptr inbounds i8, ptr %this, i64 16
  tail call void @_ZNSt7__cxx1112basic_stringIcSt11char_traitsIcESaIcEEC1Ev(ptr noundef nonnull align 8 dereferenceable(32) %atom_) #16
  store i32 %op, ptr %this, align 8
  %subs_ = getelementptr inbounds i8, ptr %this, i64 8
  store ptr null, ptr %subs_, align 8
  %op.off = add i32 %op, -3
  %switch = icmp ult i32 %op.off, 2
  br i1 %switch, label %if.then, label %if.end

if.then:                                          ; preds = %entry
  %call = invoke noalias noundef nonnull dereferenceable(24) ptr @_Znwm(i64 noundef 24) #17
          to label %invoke.cont unwind label %lpad

invoke.cont:                                      ; preds = %if.then
  tail call void @llvm.memset.p0.i64(ptr noundef nonnull align 8 dereferenceable(24) %call, i8 0, i64 24, i1 false)
  store ptr %call, ptr %subs_, align 8
  br label %if.end

lpad:                                             ; preds = %if.then
  %0 = landingpad { ptr, i32 }
          cleanup
  tail call void @_ZNSt7__cxx1112basic_stringIcSt11char_traitsIcESaIcEED1Ev(ptr noundef nonnull align 8 dereferenceable(32) %atom_) #16
  resume { ptr, i32 } %0

if.end:                                           ; preds = %entry, %invoke.cont
  ret void
}